; Function Attrs: mustprogress nofree norecurse nosync nounwind willreturn memory(read, inaccessiblemem: none) uwtable
define noundef zeroext i1 @_ZNK3gmx19SelectionCollection4Impl18areForcesRequestedEv(ptr nocapture noundef nonnull readonly align 8 dereferenceable(224) %0) local_unnamed_addr #10 align 2 {
  %2 = getelementptr inbounds i8, ptr %0, i64 24
  %3 = load ptr, ptr %2, align 8
  %4 = getelementptr inbounds i8, ptr %0, i64 32
  %5 = load ptr, ptr %4, align 8
  %.not11 = icmp eq ptr %3, %5
  br i1 %.not11, label %._crit_edge, label %.lr.ph

.lr.ph:                                           ; preds = %1, %.lr.ph
  %.sroa.05.08 = phi ptr [ %10, %.lr.ph ], [ %3, %1 ]
  %6 = load ptr, ptr %.sroa.05.08, align 8
  %7 = getelementptr inbounds i8, ptr %6, i64 264
  %8 = load i64, ptr %7, align 8
  %9 = and i64 %8, 64
  %.not.not = icmp ne i64 %9, 0
  %10 = getelementptr inbounds i8, ptr %.sroa.05.08, i64 8
  %.not12 = icmp eq ptr %10, %5
  %or.cond = select i1 %.not.not, i1 true, i1 %.not12
  br i1 %or.cond, label %._crit_edge, label %.lr.ph

._crit_edge:                                      ; preds = %.lr.ph, %1
  %.lcssa = phi i1 [ false, %1 ], [ %.not.not, %.lr.ph ]
  ret i1 %.lcssa
}